; Function Attrs: mustprogress nofree norecurse nosync nounwind willreturn memory(argmem: read) uwtable
define noundef float @_ZN3vcg10trackutils9getDeltaYEPNS_9TrackballENS_6Point3IfEE(ptr nocapture noundef readonly %0, <2 x float> %1, float %2) local_unnamed_addr #19 {
  %4 = getelementptr inbounds i8, ptr %0, i64 316
  %5 = load i32, ptr %4, align 4
  %6 = getelementptr inbounds i8, ptr %0, i64 308
  %7 = load i32, ptr %6, align 4
  %8 = sub nsw i32 %5, %7
  %9 = sitofp i32 %8 to float
  %.sroa.0.4.vec.extract = extractelement <2 x float> %1, i64 1
  %10 = getelementptr inbounds i8, ptr %0, i64 500
  %11 = load float, ptr %10, align 4
  %12 = fsub float %.sroa.0.4.vec.extract, %11
  %13 = fdiv float %12, %9
  ret float %13
}